target datalayout = "e-m:e-p270:32:32-p271:32:32-p272:64:64-i64:64-i128:128-f80:128-n8:16:32:64-S128"
target triple = "x86_64-pc-linux-gnu"

; Function Attrs: mustprogress nounwind uwtable
define internal noundef i32 @_ZN11duckdb_zstdL11ERR_isErrorEm(i64 noundef %0) #0 {
  %2 = alloca i64, align 8
  store i64 %0, ptr %2, align 8, !tbaa !9
  %3 = load i64, ptr %2, align 8, !tbaa !9
  %4 = icmp ugt i64 %3, -120
  %5 = zext i1 %4 to i32
  ret i32 %5
}

; Function Attrs: mustprogress uwtable
define internal noundef i64 @_ZN11duckdb_zstdL27HUF_compressCTable_internalEPhS0_S0_PKvmNS_15HUF_nbStreams_eEPKmi(ptr noundef %0, ptr noundef %1, ptr noundef %2, ptr noundef %3, i64 noundef %4, i32 noundef %5, ptr noundef %6, i32 noundef %7) #2 {
  %9 = alloca i64, align 8
  %10 = alloca ptr, align 8
  %11 = alloca ptr, align 8
  %12 = alloca ptr, align 8
  %13 = alloca ptr, align 8
  %14 = alloca i64, align 8
  %15 = alloca i32, align 4
  %16 = alloca ptr, align 8
  %17 = alloca i32, align 4
  %18 = alloca i64, align 8
  %19 = alloca i32, align 4
  store ptr %0, ptr %10, align 8, !tbaa !13
  store ptr %1, ptr %11, align 8, !tbaa !13
  store ptr %2, ptr %12, align 8, !tbaa !13
  store ptr %3, ptr %13, align 8, !tbaa !8
  store i64 %4, ptr %14, align 8, !tbaa !9
  store i32 %5, ptr %15, align 4, !tbaa !67
  store ptr %6, ptr %16, align 8, !tbaa !3
  store i32 %7, ptr %17, align 4, !tbaa !11
  call void @llvm.lifetime.start.p0(i64 8, ptr %18) #12
  %20 = load i32, ptr %15, align 4, !tbaa !67
  %21 = icmp eq i32 %20, 0
  br i1 %21, label %22, label %34

22:                                               ; preds = %8
  %23 = load ptr, ptr %11, align 8, !tbaa !13
  %24 = load ptr, ptr %12, align 8, !tbaa !13
  %25 = load ptr, ptr %11, align 8, !tbaa !13
  %26 = ptrtoint ptr %24 to i64
  %27 = ptrtoint ptr %25 to i64
  %28 = sub i64 %26, %27
  %29 = load ptr, ptr %13, align 8, !tbaa !8
  %30 = load i64, ptr %14, align 8, !tbaa !9
  %31 = load ptr, ptr %16, align 8, !tbaa !3
  %32 = load i32, ptr %17, align 4, !tbaa !11
  %33 = call noundef i64 @_ZN11duckdb_zstdL35HUF_compress1X_usingCTable_internalEPvmPKvmPKmi(ptr noundef %23, i64 noundef %28, ptr noundef %29, i64 noundef %30, ptr noundef %31, i32 noundef %32)
  br label %46

34:                                               ; preds = %8
  %35 = load ptr, ptr %11, align 8, !tbaa !13
  %36 = load ptr, ptr %12, align 8, !tbaa !13
  %37 = load ptr, ptr %11, align 8, !tbaa !13
  %38 = ptrtoint ptr %36 to i64
  %39 = ptrtoint ptr %37 to i64
  %40 = sub i64 %38, %39
  %41 = load ptr, ptr %13, align 8, !tbaa !8
  %42 = load i64, ptr %14, align 8, !tbaa !9
  %43 = load ptr, ptr %16, align 8, !tbaa !3
  %44 = load i32, ptr %17, align 4, !tbaa !11
  %45 = call noundef i64 @_ZN11duckdb_zstdL35HUF_compress4X_usingCTable_internalEPvmPKvmPKmi(ptr noundef %35, i64 noundef %40, ptr noundef %41, i64 noundef %42, ptr noundef %43, i32 noundef %44)
  br label %46

46:                                               ; preds = %34, %22
  %47 = phi i64 [ %33, %22 ], [ %45, %34 ]
  store i64 %47, ptr %18, align 8, !tbaa !9
  %48 = load i64, ptr %18, align 8, !tbaa !9
  %49 = call noundef i32 @_ZN11duckdb_zstdL11ERR_isErrorEm(i64 noundef %48)
  %50 = icmp ne i32 %49, 0
  br i1 %50, label %51, label %53

51:                                               ; preds = %46
  %52 = load i64, ptr %18, align 8, !tbaa !9
  store i64 %52, ptr %9, align 8
  store i32 1, ptr %19, align 4
  br label %76

53:                                               ; preds = %46
  %54 = load i64, ptr %18, align 8, !tbaa !9
  %55 = icmp eq i64 %54, 0
  br i1 %55, label %56, label %57

56:                                               ; preds = %53
  store i64 0, ptr %9, align 8
  store i32 1, ptr %19, align 4
  br label %76

57:                                               ; preds = %53
  %58 = load i64, ptr %18, align 8, !tbaa !9
  %59 = load ptr, ptr %11, align 8, !tbaa !13
  %60 = getelementptr inbounds nuw i8, ptr %59, i64 %58
  store ptr %60, ptr %11, align 8, !tbaa !13
  %61 = load ptr, ptr %11, align 8, !tbaa !13
  %62 = load ptr, ptr %10, align 8, !tbaa !13
  %63 = ptrtoint ptr %61 to i64
  %64 = ptrtoint ptr %62 to i64
  %65 = sub i64 %63, %64
  %66 = load i64, ptr %14, align 8, !tbaa !9
  %67 = sub i64 %66, 1
  %68 = icmp uge i64 %65, %67
  br i1 %68, label %69, label %70

69:                                               ; preds = %57
  store i64 0, ptr %9, align 8
  store i32 1, ptr %19, align 4
  br label %76

70:                                               ; preds = %57
  %71 = load ptr, ptr %11, align 8, !tbaa !13
  %72 = load ptr, ptr %10, align 8, !tbaa !13
  %73 = ptrtoint ptr %71 to i64
  %74 = ptrtoint ptr %72 to i64
  %75 = sub i64 %73, %74
  store i64 %75, ptr %9, align 8
  store i32 1, ptr %19, align 4
  br label %76

76:                                               ; preds = %70, %69, %56, %51
  call void @llvm.lifetime.end.p0(i64 8, ptr %18) #12
  %77 = load i64, ptr %9, align 8
  ret i64 %77
}