; Function Attrs: mustprogress nofree norecurse nosync nounwind memory(write, argmem: readwrite, inaccessiblemem: none) uwtable
define internal fastcc noundef i64 @_ZN11duckdb_zstdL27HUF_compressCTable_internalEPhS0_S0_PKvmNS_15HUF_nbStreams_eEPKmi(ptr noundef %0, ptr noundef %1, ptr noundef %2, ptr noundef %3, i64 noundef range(i64 1, 131073) %4, i32 noundef range(i32 0, 2) %5, ptr noundef %6, i32 noundef %7) unnamed_addr #8 {
  %9 = icmp eq i32 %5, 0
  %10 = ptrtoint ptr %2 to i64
  %11 = ptrtoint ptr %1 to i64
  %12 = sub i64 %10, %11
  br i1 %9, label %13, label %15

13:                                               ; preds = %8
  %14 = tail call fastcc noundef i64 @_ZN11duckdb_zstdL35HUF_compress1X_usingCTable_internalEPvmPKvmPKmi(ptr noundef %1, i64 noundef %12, ptr noundef %3, i64 noundef %4, ptr noundef %6, i32 noundef %7)
  br label %17

15:                                               ; preds = %8
  %16 = tail call fastcc noundef i64 @_ZN11duckdb_zstdL35HUF_compress4X_usingCTable_internalEPvmPKvmPKmi(ptr noundef %1, i64 noundef %12, ptr noundef %3, i64 noundef %4, ptr noundef %6, i32 noundef %7)
  br label %17

17:                                               ; preds = %15, %13
  %18 = phi i64 [ %14, %13 ], [ %16, %15 ]
  %19 = icmp ult i64 %18, -119
  br i1 %19, label %20, label %28

20:                                               ; preds = %17
  %21 = icmp eq i64 %18, 0
  br i1 %21, label %28, label %22

22:                                               ; preds = %20
  %23 = getelementptr inbounds nuw i8, ptr %1, i64 %18
  %24 = ptrtoint ptr %23 to i64
  %25 = ptrtoint ptr %0 to i64
  %26 = sub i64 %24, %25
  %27 = add nsw i64 %4, -1
  %.not27 = icmp ult i64 %26, %27
  %. = select i1 %.not27, i64 %26, i64 0
  br label %28

28:                                               ; preds = %22, %20, %17
  %.0 = phi i64 [ %18, %17 ], [ 0, %20 ], [ %., %22 ]
  ret i64 %.0
}